
key_led.elf:     file format elf32-littlearm

Disassembly of section .text:

00000000 <_start>:
   0:	e3a00453 	mov	r0, #1392508928	; 0x53000000
   4:	e3a01000 	mov	r1, #0	; 0x0
   8:	e5801000 	str	r1, [r0]
   c:	e3a01000 	mov	r1, #0	; 0x0
  10:	e5910000 	ldr	r0, [r1]
  14:	e5811000 	str	r1, [r1]
  18:	e5912000 	ldr	r2, [r1]
  1c:	e1510002 	cmp	r1, r2
  20:	e59fd00c 	ldr	sp, [pc, #12]	; 34 <.text+0x34>
  24:	03a0da01 	moveq	sp, #4096	; 0x1000
  28:	05810000 	streq	r0, [r1]
  2c:	eb00000e 	bl	6c <main>

00000030 <halt>:
  30:	eafffffe 	b	30 <halt>
  34:	40001000 	andmi	r1, r0, r0

00000038 <delay>:
  38:	e1a0c00d 	mov	ip, sp
  3c:	e92dd800 	stmdb	sp!, {fp, ip, lr, pc}
  40:	e24cb004 	sub	fp, ip, #4	; 0x4
  44:	e24dd004 	sub	sp, sp, #4	; 0x4
  48:	e50b0010 	str	r0, [fp, #-16]
  4c:	e51b3010 	ldr	r3, [fp, #-16]
  50:	e2433001 	sub	r3, r3, #1	; 0x1
  54:	e50b3010 	str	r3, [fp, #-16]
  58:	e51b3010 	ldr	r3, [fp, #-16]
  5c:	e3730001 	cmn	r3, #1	; 0x1
  60:	0a000000 	beq	68 <delay+0x30>
  64:	eafffff8 	b	4c <delay+0x14>
  68:	e89da808 	ldmia	sp, {r3, fp, sp, pc}

0000006c <main>:
  6c:	e1a0c00d 	mov	ip, sp
  70:	e92dd800 	stmdb	sp!, {fp, ip, lr, pc}
  74:	e24cb004 	sub	fp, ip, #4	; 0x4
  78:	e24dd008 	sub	sp, sp, #8	; 0x8
  7c:	e3a02456 	mov	r2, #1442840576	; 0x56000000
  80:	e2822050 	add	r2, r2, #80	; 0x50
  84:	e3a03456 	mov	r3, #1442840576	; 0x56000000
  88:	e2833050 	add	r3, r3, #80	; 0x50
  8c:	e5933000 	ldr	r3, [r3]
  90:	e3c33c3f 	bic	r3, r3, #16128	; 0x3f00
  94:	e5823000 	str	r3, [r2]
  98:	e3a02456 	mov	r2, #1442840576	; 0x56000000
  9c:	e2822050 	add	r2, r2, #80	; 0x50
  a0:	e3a03456 	mov	r3, #1442840576	; 0x56000000
  a4:	e2833050 	add	r3, r3, #80	; 0x50
  a8:	e5933000 	ldr	r3, [r3]
  ac:	e3833c15 	orr	r3, r3, #5376	; 0x1500
  b0:	e5823000 	str	r3, [r2]
  b4:	e3a02456 	mov	r2, #1442840576	; 0x56000000
  b8:	e2822050 	add	r2, r2, #80	; 0x50
  bc:	e3a03456 	mov	r3, #1442840576	; 0x56000000
  c0:	e2833050 	add	r3, r3, #80	; 0x50
  c4:	e5933000 	ldr	r3, [r3]
  c8:	e3c33033 	bic	r3, r3, #51	; 0x33
  cc:	e5823000 	str	r3, [r2]
  d0:	e3a02456 	mov	r2, #1442840576	; 0x56000000
  d4:	e2822060 	add	r2, r2, #96	; 0x60
  d8:	e3a03456 	mov	r3, #1442840576	; 0x56000000
  dc:	e2833060 	add	r3, r3, #96	; 0x60
  e0:	e5933000 	ldr	r3, [r3]
  e4:	e3c330c0 	bic	r3, r3, #192	; 0xc0
  e8:	e5823000 	str	r3, [r2]
  ec:	e3a03456 	mov	r3, #1442840576	; 0x56000000
  f0:	e2833054 	add	r3, r3, #84	; 0x54
  f4:	e5933000 	ldr	r3, [r3]
  f8:	e50b3010 	str	r3, [fp, #-16]
  fc:	e3a03456 	mov	r3, #1442840576	; 0x56000000
 100:	e2833064 	add	r3, r3, #100	; 0x64
 104:	e5933000 	ldr	r3, [r3]
 108:	e50b3014 	str	r3, [fp, #-20]
 10c:	e51b3010 	ldr	r3, [fp, #-16]
 110:	e2033001 	and	r3, r3, #1	; 0x1
 114:	e3530000 	cmp	r3, #0	; 0x0
 118:	0a000007 	beq	13c <main+0xd0>
 11c:	e3a02456 	mov	r2, #1442840576	; 0x56000000
 120:	e2822054 	add	r2, r2, #84	; 0x54
 124:	e3a03456 	mov	r3, #1442840576	; 0x56000000
 128:	e2833054 	add	r3, r3, #84	; 0x54
 12c:	e5933000 	ldr	r3, [r3]
 130:	e3833040 	orr	r3, r3, #64	; 0x40
 134:	e5823000 	str	r3, [r2]
 138:	ea000006 	b	158 <main+0xec>
 13c:	e3a02456 	mov	r2, #1442840576	; 0x56000000
 140:	e2822054 	add	r2, r2, #84	; 0x54
 144:	e3a03456 	mov	r3, #1442840576	; 0x56000000
 148:	e2833054 	add	r3, r3, #84	; 0x54
 14c:	e5933000 	ldr	r3, [r3]
 150:	e3c33040 	bic	r3, r3, #64	; 0x40
 154:	e5823000 	str	r3, [r2]
 158:	e51b3010 	ldr	r3, [fp, #-16]
 15c:	e2033004 	and	r3, r3, #4	; 0x4
 160:	e3530000 	cmp	r3, #0	; 0x0
 164:	0a000007 	beq	188 <main+0x11c>
 168:	e3a02456 	mov	r2, #1442840576	; 0x56000000
 16c:	e2822054 	add	r2, r2, #84	; 0x54
 170:	e3a03456 	mov	r3, #1442840576	; 0x56000000
 174:	e2833054 	add	r3, r3, #84	; 0x54
 178:	e5933000 	ldr	r3, [r3]
 17c:	e3833020 	orr	r3, r3, #32	; 0x20
 180:	e5823000 	str	r3, [r2]
 184:	ea000006 	b	1a4 <main+0x138>
 188:	e3a02456 	mov	r2, #1442840576	; 0x56000000
 18c:	e2822054 	add	r2, r2, #84	; 0x54
 190:	e3a03456 	mov	r3, #1442840576	; 0x56000000
 194:	e2833054 	add	r3, r3, #84	; 0x54
 198:	e5933000 	ldr	r3, [r3]
 19c:	e3c33020 	bic	r3, r3, #32	; 0x20
 1a0:	e5823000 	str	r3, [r2]
 1a4:	e51b3014 	ldr	r3, [fp, #-20]
 1a8:	e2033008 	and	r3, r3, #8	; 0x8
 1ac:	e3530000 	cmp	r3, #0	; 0x0
 1b0:	0a000007 	beq	1d4 <main+0x168>
 1b4:	e3a02456 	mov	r2, #1442840576	; 0x56000000
 1b8:	e2822054 	add	r2, r2, #84	; 0x54
 1bc:	e3a03456 	mov	r3, #1442840576	; 0x56000000
 1c0:	e2833054 	add	r3, r3, #84	; 0x54
 1c4:	e5933000 	ldr	r3, [r3]
 1c8:	e3833010 	orr	r3, r3, #16	; 0x10
 1cc:	e5823000 	str	r3, [r2]
 1d0:	eaffffc5 	b	ec <main+0x80>
 1d4:	e3a02456 	mov	r2, #1442840576	; 0x56000000
 1d8:	e2822054 	add	r2, r2, #84	; 0x54
 1dc:	e3a03456 	mov	r3, #1442840576	; 0x56000000
 1e0:	e2833054 	add	r3, r3, #84	; 0x54
 1e4:	e5933000 	ldr	r3, [r3]
 1e8:	e3c33010 	bic	r3, r3, #16	; 0x10
 1ec:	e5823000 	str	r3, [r2]
 1f0:	eaffffbd 	b	ec <main+0x80>